target datalayout = "e-m:e-p270:32:32-p271:32:32-p272:64:64-i64:64-i128:128-f80:128-n8:16:32:64-S128"
target triple = "x86_64-pc-linux-gnu"

@generate_canonical_g.ggen = internal constant [4 x i8] c"ggen", align 1

; Function Attrs: nounwind uwtable
define internal i32 @generate_canonical_g(ptr noundef %0, ptr noundef %1, ptr noundef %2, ptr noundef %3, ptr noundef %4, ptr noundef %5, ptr noundef %6, i32 noundef %7, ptr noundef %8, i64 noundef %9) #0 {
  %11 = alloca i32, align 4
  %12 = alloca ptr, align 8
  %13 = alloca ptr, align 8
  %14 = alloca ptr, align 8
  %15 = alloca ptr, align 8
  %16 = alloca ptr, align 8
  %17 = alloca ptr, align 8
  %18 = alloca ptr, align 8
  %19 = alloca i32, align 4
  %20 = alloca ptr, align 8
  %21 = alloca i64, align 8
  %22 = alloca i32, align 4
  %23 = alloca i32, align 4
  %24 = alloca [64 x i8], align 16
  %25 = alloca ptr, align 8
  %26 = alloca i32, align 4
  %27 = alloca i32, align 4
  store ptr %0, ptr %12, align 8, !tbaa !24
  store ptr %1, ptr %13, align 8, !tbaa !22
  store ptr %2, ptr %14, align 8, !tbaa !28
  store ptr %3, ptr %15, align 8, !tbaa !20
  store ptr %4, ptr %16, align 8, !tbaa !20
  store ptr %5, ptr %17, align 8, !tbaa !20
  store ptr %6, ptr %18, align 8, !tbaa !20
  store i32 %7, ptr %19, align 4, !tbaa !10
  store ptr %8, ptr %20, align 8, !tbaa !18
  store i64 %9, ptr %21, align 8, !tbaa !12
  call void @llvm.lifetime.start.p0(i64 4, ptr %22) #5
  store i32 0, ptr %22, align 4, !tbaa !10
  call void @llvm.lifetime.start.p0(i64 4, ptr %23) #5
  store i32 1, ptr %23, align 4, !tbaa !10
  call void @llvm.lifetime.start.p0(i64 64, ptr %24) #5
  call void @llvm.lifetime.start.p0(i64 8, ptr %25) #5
  store ptr null, ptr %25, align 8, !tbaa !26
  call void @llvm.lifetime.start.p0(i64 4, ptr %26) #5
  %28 = load ptr, ptr %14, align 8, !tbaa !28
  %29 = call i32 @EVP_MD_get_size(ptr noundef %28)
  store i32 %29, ptr %26, align 4, !tbaa !10
  %30 = load i32, ptr %26, align 4, !tbaa !10
  %31 = icmp sle i32 %30, 0
  br i1 %31, label %32, label %33

32:                                               ; preds = %10
  store i32 0, ptr %11, align 4
  store i32 1, ptr %27, align 4
  br label %109

33:                                               ; preds = %10
  %34 = call ptr @EVP_MD_CTX_new()
  store ptr %34, ptr %25, align 8, !tbaa !26
  %35 = load ptr, ptr %25, align 8, !tbaa !26
  %36 = icmp eq ptr %35, null
  br i1 %36, label %37, label %38

37:                                               ; preds = %33
  store i32 0, ptr %11, align 4
  store i32 1, ptr %27, align 4
  br label %109

38:                                               ; preds = %33
  store i32 1, ptr %23, align 4, !tbaa !10
  br label %39

39:                                               ; preds = %103, %38
  %40 = load i32, ptr %23, align 4, !tbaa !10
  %41 = icmp sle i32 %40, 65535
  br i1 %41, label %42, label %106

42:                                               ; preds = %39
  %43 = load i32, ptr %19, align 4, !tbaa !10
  %44 = and i32 %43, 255
  %45 = trunc i32 %44 to i8
  %46 = getelementptr inbounds [64 x i8], ptr %24, i64 0, i64 0
  store i8 %45, ptr %46, align 16, !tbaa !42
  %47 = load i32, ptr %23, align 4, !tbaa !10
  %48 = ashr i32 %47, 8
  %49 = and i32 %48, 255
  %50 = trunc i32 %49 to i8
  %51 = getelementptr inbounds [64 x i8], ptr %24, i64 0, i64 1
  store i8 %50, ptr %51, align 1, !tbaa !42
  %52 = load i32, ptr %23, align 4, !tbaa !10
  %53 = and i32 %52, 255
  %54 = trunc i32 %53 to i8
  %55 = getelementptr inbounds [64 x i8], ptr %24, i64 0, i64 2
  store i8 %54, ptr %55, align 2, !tbaa !42
  %56 = load ptr, ptr %25, align 8, !tbaa !26
  %57 = load ptr, ptr %14, align 8, !tbaa !28
  %58 = call i32 @EVP_DigestInit_ex(ptr noundef %56, ptr noundef %57, ptr noundef null)
  %59 = icmp ne i32 %58, 0
  br i1 %59, label %60, label %95

60:                                               ; preds = %42
  %61 = load ptr, ptr %25, align 8, !tbaa !26
  %62 = load ptr, ptr %20, align 8, !tbaa !18
  %63 = load i64, ptr %21, align 8, !tbaa !12
  %64 = call i32 @EVP_DigestUpdate(ptr noundef %61, ptr noundef %62, i64 noundef %63)
  %65 = icmp ne i32 %64, 0
  br i1 %65, label %66, label %95

66:                                               ; preds = %60
  %67 = load ptr, ptr %25, align 8, !tbaa !26
  %68 = call i32 @EVP_DigestUpdate(ptr noundef %67, ptr noundef @generate_canonical_g.ggen, i64 noundef 4)
  %69 = icmp ne i32 %68, 0
  br i1 %69, label %70, label %95

70:                                               ; preds = %66
  %71 = load ptr, ptr %25, align 8, !tbaa !26
  %72 = getelementptr inbounds [64 x i8], ptr %24, i64 0, i64 0
  %73 = call i32 @EVP_DigestUpdate(ptr noundef %71, ptr noundef %72, i64 noundef 3)
  %74 = icmp ne i32 %73, 0
  br i1 %74, label %75, label %95

75:                                               ; preds = %70
  %76 = load ptr, ptr %25, align 8, !tbaa !26
  %77 = getelementptr inbounds [64 x i8], ptr %24, i64 0, i64 0
  %78 = call i32 @EVP_DigestFinal_ex(ptr noundef %76, ptr noundef %77, ptr noundef null)
  %79 = icmp ne i32 %78, 0
  br i1 %79, label %80, label %95

80:                                               ; preds = %75
  %81 = getelementptr inbounds [64 x i8], ptr %24, i64 0, i64 0
  %82 = load i32, ptr %26, align 4, !tbaa !10
  %83 = load ptr, ptr %16, align 8, !tbaa !20
  %84 = call ptr @BN_bin2bn(ptr noundef %81, i32 noundef %82, ptr noundef %83)
  %85 = icmp eq ptr %84, null
  br i1 %85, label %95, label %86

86:                                               ; preds = %80
  %87 = load ptr, ptr %15, align 8, !tbaa !20
  %88 = load ptr, ptr %16, align 8, !tbaa !20
  %89 = load ptr, ptr %18, align 8, !tbaa !20
  %90 = load ptr, ptr %17, align 8, !tbaa !20
  %91 = load ptr, ptr %12, align 8, !tbaa !24
  %92 = load ptr, ptr %13, align 8, !tbaa !22
  %93 = call i32 @BN_mod_exp_mont(ptr noundef %87, ptr noundef %88, ptr noundef %89, ptr noundef %90, ptr noundef %91, ptr noundef %92)
  %94 = icmp ne i32 %93, 0
  br i1 %94, label %96, label %95

95:                                               ; preds = %86, %80, %75, %70, %66, %60, %42
  br label %106

96:                                               ; preds = %86
  %97 = load ptr, ptr %15, align 8, !tbaa !20
  %98 = call ptr @BN_value_one()
  %99 = call i32 @BN_cmp(ptr noundef %97, ptr noundef %98)
  %100 = icmp sgt i32 %99, 0
  br i1 %100, label %101, label %102

101:                                              ; preds = %96
  store i32 1, ptr %22, align 4, !tbaa !10
  br label %106

102:                                              ; preds = %96
  br label %103

103:                                              ; preds = %102
  %104 = load i32, ptr %23, align 4, !tbaa !10
  %105 = add nsw i32 %104, 1
  store i32 %105, ptr %23, align 4, !tbaa !10
  br label %39, !llvm.loop !47

106:                                              ; preds = %101, %95, %39
  %107 = load ptr, ptr %25, align 8, !tbaa !26
  call void @EVP_MD_CTX_free(ptr noundef %107)
  %108 = load i32, ptr %22, align 4, !tbaa !10
  store i32 %108, ptr %11, align 4
  store i32 1, ptr %27, align 4
  br label %109

109:                                              ; preds = %106, %37, %32
  call void @llvm.lifetime.end.p0(i64 4, ptr %26) #5
  call void @llvm.lifetime.end.p0(i64 8, ptr %25) #5
  call void @llvm.lifetime.end.p0(i64 64, ptr %24) #5
  call void @llvm.lifetime.end.p0(i64 4, ptr %23) #5
  call void @llvm.lifetime.end.p0(i64 4, ptr %22) #5
  %110 = load i32, ptr %11, align 4
  ret i32 %110
}