; Function Attrs: nounwind uwtable
define internal fastcc range(i32 0, 2) i32 @generate_canonical_g(ptr noundef nonnull %0, ptr noundef nonnull %1, ptr noundef nonnull %2, ptr noundef %3, ptr noundef nonnull %4, ptr noundef %5, ptr noundef %6, i32 noundef range(i32 0, -1) %7, ptr noundef nonnull %8, i64 noundef range(i64 1, 0) %9) unnamed_addr #0 {
  %11 = alloca [64 x i8], align 16
  call void @llvm.lifetime.start.p0(i64 64, ptr nonnull %11) #5
  %12 = tail call i32 @EVP_MD_get_size(ptr noundef nonnull %2) #5
  %13 = icmp slt i32 %12, 1
  br i1 %13, label %45, label %14

14:                                               ; preds = %10
  %15 = tail call ptr @EVP_MD_CTX_new() #5
  %16 = icmp eq ptr %15, null
  br i1 %16, label %45, label %.preheader

.preheader:                                       ; preds = %14
  %17 = trunc i32 %7 to i8
  %18 = getelementptr inbounds nuw i8, ptr %11, i64 1
  %19 = getelementptr inbounds nuw i8, ptr %11, i64 2
  br label %22

20:                                               ; preds = %40
  %21 = add nuw nsw i32 %.02736, 1
  %exitcond.not = icmp eq i32 %21, 65536
  br i1 %exitcond.not, label %44, label %22, !llvm.loop !28

22:                                               ; preds = %.preheader, %20
  %.02736 = phi i32 [ 1, %.preheader ], [ %21, %20 ]
  store i8 %17, ptr %11, align 16, !tbaa !23
  %23 = lshr i32 %.02736, 8
  %24 = trunc nuw i32 %23 to i8
  store i8 %24, ptr %18, align 1, !tbaa !23
  %25 = trunc i32 %.02736 to i8
  store i8 %25, ptr %19, align 2, !tbaa !23
  %26 = call i32 @EVP_DigestInit_ex(ptr noundef nonnull %15, ptr noundef nonnull %2, ptr noundef null) #5
  %.not = icmp eq i32 %26, 0
  br i1 %.not, label %44, label %27

27:                                               ; preds = %22
  %28 = call i32 @EVP_DigestUpdate(ptr noundef nonnull %15, ptr noundef nonnull %8, i64 noundef %9) #5
  %.not31 = icmp eq i32 %28, 0
  br i1 %.not31, label %44, label %29

29:                                               ; preds = %27
  %30 = call i32 @EVP_DigestUpdate(ptr noundef nonnull %15, ptr noundef nonnull @generate_canonical_g.ggen, i64 noundef 4) #5
  %.not32 = icmp eq i32 %30, 0
  br i1 %.not32, label %44, label %31

31:                                               ; preds = %29
  %32 = call i32 @EVP_DigestUpdate(ptr noundef nonnull %15, ptr noundef nonnull %11, i64 noundef 3) #5
  %.not33 = icmp eq i32 %32, 0
  br i1 %.not33, label %44, label %33

33:                                               ; preds = %31
  %34 = call i32 @EVP_DigestFinal_ex(ptr noundef nonnull %15, ptr noundef nonnull %11, ptr noundef null) #5
  %.not34 = icmp eq i32 %34, 0
  br i1 %.not34, label %44, label %35

35:                                               ; preds = %33
  %36 = call ptr @BN_bin2bn(ptr noundef nonnull %11, i32 noundef %12, ptr noundef nonnull %4) #5
  %37 = icmp eq ptr %36, null
  br i1 %37, label %44, label %38

38:                                               ; preds = %35
  %39 = call i32 @BN_mod_exp_mont(ptr noundef %3, ptr noundef nonnull %4, ptr noundef %6, ptr noundef %5, ptr noundef nonnull %0, ptr noundef nonnull %1) #5
  %.not35 = icmp eq i32 %39, 0
  br i1 %.not35, label %44, label %40

40:                                               ; preds = %38
  %41 = call ptr @BN_value_one() #5
  %42 = call i32 @BN_cmp(ptr noundef %3, ptr noundef %41) #5
  %43 = icmp sgt i32 %42, 0
  br i1 %43, label %44, label %20

44:                                               ; preds = %40, %22, %27, %29, %31, %33, %35, %38, %20
  %.028 = phi i32 [ 0, %35 ], [ 0, %38 ], [ 0, %33 ], [ 0, %31 ], [ 0, %29 ], [ 0, %27 ], [ 0, %22 ], [ 0, %20 ], [ 1, %40 ]
  call void @EVP_MD_CTX_free(ptr noundef nonnull %15) #5
  br label %45

45:                                               ; preds = %14, %10, %44
  %.0 = phi i32 [ %.028, %44 ], [ 0, %10 ], [ 0, %14 ]
  call void @llvm.lifetime.end.p0(i64 64, ptr nonnull %11) #5
  ret i32 %.0
}